target datalayout = "e-m:e-p270:32:32-p271:32:32-p272:64:64-i64:64-i128:128-f80:128-n8:16:32:64-S128"
target triple = "x86_64-unknown-linux-gnu"

%class.btCompoundShape = type { %class.btCollisionShape, %class.btAlignedObjectArray, %class.btVector3, %class.btVector3, ptr, i32, float, %class.btVector3 }
%class.btCollisionShape = type { ptr, i32, ptr, i32, i32 }
%class.btAlignedObjectArray = type <{ %class.btAlignedAllocator, [3 x i8], i32, i32, [4 x i8], ptr, i8, [7 x i8] }>
%class.btAlignedAllocator = type { i8 }
%class.btVector3 = type { [4 x float] }
%struct.btCompoundShapeChild = type { %class.btTransform, ptr, i32, float, ptr }
%class.btTransform = type { %class.btMatrix3x3, %class.btVector3 }
%class.btMatrix3x3 = type { [3 x %class.btVector3] }

; Function Attrs: mustprogress nounwind uwtable
define linkonce_odr dso_local noundef ptr @_ZN9btVector3cvPfEv(ptr noundef nonnull align 4 dereferenceable(16) %this) #1 comdat align 2 {
entry:
  %this.addr = alloca ptr, align 8
  store ptr %this, ptr %this.addr, align 8
  %this1 = load ptr, ptr %this.addr, align 8
  %m_floats = getelementptr inbounds %class.btVector3, ptr %this1, i32 0, i32 0
  %arrayidx = getelementptr inbounds [4 x float], ptr %m_floats, i64 0, i64 0
  ret ptr %arrayidx
}

; Function Attrs: mustprogress nounwind uwtable
define linkonce_odr dso_local noundef nonnull align 8 dereferenceable(88) ptr @_ZN20btAlignedObjectArrayI20btCompoundShapeChildEixEi(ptr noundef nonnull align 8 dereferenceable(25) %this, i32 noundef %n) #1 comdat align 2 {
entry:
  %this.addr = alloca ptr, align 8
  %n.addr = alloca i32, align 4
  store ptr %this, ptr %this.addr, align 8
  store i32 %n, ptr %n.addr, align 4
  %this1 = load ptr, ptr %this.addr, align 8
  %m_data = getelementptr inbounds %class.btAlignedObjectArray, ptr %this1, i32 0, i32 5
  %0 = load ptr, ptr %m_data, align 8
  %1 = load i32, ptr %n.addr, align 4
  %idxprom = sext i32 %1 to i64
  %arrayidx = getelementptr inbounds %struct.btCompoundShapeChild, ptr %0, i64 %idxprom
  ret ptr %arrayidx
}

; Function Attrs: mustprogress nounwind uwtable
define linkonce_odr dso_local void @_ZN9btVector3C2Ev(ptr noundef nonnull align 4 dereferenceable(16) %this) unnamed_addr #1 comdat align 2 {
entry:
  %this.addr = alloca ptr, align 8
  store ptr %this, ptr %this.addr, align 8
  ret void
}

; Function Attrs: mustprogress nounwind uwtable
define linkonce_odr dso_local noundef i32 @_ZNK20btAlignedObjectArrayI20btCompoundShapeChildE4sizeEv(ptr noundef nonnull align 8 dereferenceable(25) %this) #1 comdat align 2 {
entry:
  %this.addr = alloca ptr, align 8
  store ptr %this, ptr %this.addr, align 8
  %this1 = load ptr, ptr %this.addr, align 8
  %m_size = getelementptr inbounds %class.btAlignedObjectArray, ptr %this1, i32 0, i32 2
  %0 = load i32, ptr %m_size, align 4
  ret i32 %0
}

; Function Attrs: mustprogress nounwind uwtable
define linkonce_odr dso_local void @_ZN9btVector3C2ERKfS1_S1_(ptr noundef nonnull align 4 dereferenceable(16) %this, ptr noundef nonnull align 4 dereferenceable(4) %_x, ptr noundef nonnull align 4 dereferenceable(4) %_y, ptr noundef nonnull align 4 dereferenceable(4) %_z) unnamed_addr #1 comdat align 2 {
entry:
  %this.addr = alloca ptr, align 8
  %_x.addr = alloca ptr, align 8
  %_y.addr = alloca ptr, align 8
  %_z.addr = alloca ptr, align 8
  store ptr %this, ptr %this.addr, align 8
  store ptr %_x, ptr %_x.addr, align 8
  store ptr %_y, ptr %_y.addr, align 8
  store ptr %_z, ptr %_z.addr, align 8
  %this1 = load ptr, ptr %this.addr, align 8
  %0 = load ptr, ptr %_x.addr, align 8
  %1 = load float, ptr %0, align 4
  %m_floats = getelementptr inbounds %class.btVector3, ptr %this1, i32 0, i32 0
  %arrayidx = getelementptr inbounds [4 x float], ptr %m_floats, i64 0, i64 0
  store float %1, ptr %arrayidx, align 4
  %2 = load ptr, ptr %_y.addr, align 8
  %3 = load float, ptr %2, align 4
  %m_floats2 = getelementptr inbounds %class.btVector3, ptr %this1, i32 0, i32 0
  %arrayidx3 = getelementptr inbounds [4 x float], ptr %m_floats2, i64 0, i64 1
  store float %3, ptr %arrayidx3, align 4
  %4 = load ptr, ptr %_z.addr, align 8
  %5 = load float, ptr %4, align 4
  %m_floats4 = getelementptr inbounds %class.btVector3, ptr %this1, i32 0, i32 0
  %arrayidx5 = getelementptr inbounds [4 x float], ptr %m_floats4, i64 0, i64 2
  store float %5, ptr %arrayidx5, align 4
  %m_floats6 = getelementptr inbounds %class.btVector3, ptr %this1, i32 0, i32 0
  %arrayidx7 = getelementptr inbounds [4 x float], ptr %m_floats6, i64 0, i64 3
  store float 0.000000e+00, ptr %arrayidx7, align 4
  ret void
}

; Function Attrs: mustprogress uwtable
define dso_local void @_ZN15btCompoundShape20recalculateLocalAabbEv(ptr noundef nonnull align 8 dereferenceable(128) %this) unnamed_addr #2 align 2 {
entry:
  %this.addr = alloca ptr, align 8
  %ref.tmp = alloca %class.btVector3, align 4
  %ref.tmp2 = alloca float, align 4
  %ref.tmp3 = alloca float, align 4
  %ref.tmp4 = alloca float, align 4
  %ref.tmp5 = alloca %class.btVector3, align 4
  %ref.tmp6 = alloca float, align 4
  %ref.tmp7 = alloca float, align 4
  %ref.tmp8 = alloca float, align 4
  %j = alloca i32, align 4
  %localAabbMin = alloca %class.btVector3, align 4
  %localAabbMax = alloca %class.btVector3, align 4
  %i = alloca i32, align 4
  store ptr %this, ptr %this.addr, align 8
  %this1 = load ptr, ptr %this.addr, align 8
  store float 0x43ABC16D60000000, ptr %ref.tmp2, align 4
  store float 0x43ABC16D60000000, ptr %ref.tmp3, align 4
  store float 0x43ABC16D60000000, ptr %ref.tmp4, align 4
  call void @_ZN9btVector3C2ERKfS1_S1_(ptr noundef nonnull align 4 dereferenceable(16) %ref.tmp, ptr noundef nonnull align 4 dereferenceable(4) %ref.tmp2, ptr noundef nonnull align 4 dereferenceable(4) %ref.tmp3, ptr noundef nonnull align 4 dereferenceable(4) %ref.tmp4)
  %m_localAabbMin = getelementptr inbounds %class.btCompoundShape, ptr %this1, i32 0, i32 2
  call void @llvm.memcpy.p0.p0.i64(ptr align 8 %m_localAabbMin, ptr align 4 %ref.tmp, i64 16, i1 false)
  store float 0xC3ABC16D60000000, ptr %ref.tmp6, align 4
  store float 0xC3ABC16D60000000, ptr %ref.tmp7, align 4
  store float 0xC3ABC16D60000000, ptr %ref.tmp8, align 4
  call void @_ZN9btVector3C2ERKfS1_S1_(ptr noundef nonnull align 4 dereferenceable(16) %ref.tmp5, ptr noundef nonnull align 4 dereferenceable(4) %ref.tmp6, ptr noundef nonnull align 4 dereferenceable(4) %ref.tmp7, ptr noundef nonnull align 4 dereferenceable(4) %ref.tmp8)
  %m_localAabbMax = getelementptr inbounds %class.btCompoundShape, ptr %this1, i32 0, i32 3
  call void @llvm.memcpy.p0.p0.i64(ptr align 8 %m_localAabbMax, ptr align 4 %ref.tmp5, i64 16, i1 false)
  store i32 0, ptr %j, align 4
  br label %for.cond

for.cond:                                         ; preds = %for.inc46, %entry
  %0 = load i32, ptr %j, align 4
  %m_children = getelementptr inbounds %class.btCompoundShape, ptr %this1, i32 0, i32 1
  %call = call noundef i32 @_ZNK20btAlignedObjectArrayI20btCompoundShapeChildE4sizeEv(ptr noundef nonnull align 8 dereferenceable(25) %m_children)
  %cmp = icmp slt i32 %0, %call
  br i1 %cmp, label %for.body, label %for.end48

for.body:                                         ; preds = %for.cond
  call void @_ZN9btVector3C2Ev(ptr noundef nonnull align 4 dereferenceable(16) %localAabbMin)
  call void @_ZN9btVector3C2Ev(ptr noundef nonnull align 4 dereferenceable(16) %localAabbMax)
  %m_children9 = getelementptr inbounds %class.btCompoundShape, ptr %this1, i32 0, i32 1
  %1 = load i32, ptr %j, align 4
  %call10 = call noundef nonnull align 8 dereferenceable(88) ptr @_ZN20btAlignedObjectArrayI20btCompoundShapeChildEixEi(ptr noundef nonnull align 8 dereferenceable(25) %m_children9, i32 noundef %1)
  %m_childShape = getelementptr inbounds %struct.btCompoundShapeChild, ptr %call10, i32 0, i32 1
  %2 = load ptr, ptr %m_childShape, align 8
  %m_children11 = getelementptr inbounds %class.btCompoundShape, ptr %this1, i32 0, i32 1
  %3 = load i32, ptr %j, align 4
  %call12 = call noundef nonnull align 8 dereferenceable(88) ptr @_ZN20btAlignedObjectArrayI20btCompoundShapeChildEixEi(ptr noundef nonnull align 8 dereferenceable(25) %m_children11, i32 noundef %3)
  %m_transform = getelementptr inbounds %struct.btCompoundShapeChild, ptr %call12, i32 0, i32 0
  %vtable = load ptr, ptr %2, align 8
  %vfn = getelementptr inbounds ptr, ptr %vtable, i64 2
  %4 = load ptr, ptr %vfn, align 8
  call void %4(ptr noundef nonnull align 8 dereferenceable(32) %2, ptr noundef nonnull align 4 dereferenceable(64) %m_transform, ptr noundef nonnull align 4 dereferenceable(16) %localAabbMin, ptr noundef nonnull align 4 dereferenceable(16) %localAabbMax)
  store i32 0, ptr %i, align 4
  br label %for.cond13

for.cond13:                                       ; preds = %for.inc, %for.body
  %5 = load i32, ptr %i, align 4
  %cmp14 = icmp slt i32 %5, 3
  br i1 %cmp14, label %for.body15, label %for.end

for.body15:                                       ; preds = %for.cond13
  %m_localAabbMin16 = getelementptr inbounds %class.btCompoundShape, ptr %this1, i32 0, i32 2
  %call17 = call noundef ptr @_ZN9btVector3cvPfEv(ptr noundef nonnull align 4 dereferenceable(16) %m_localAabbMin16)
  %6 = load i32, ptr %i, align 4
  %idxprom = sext i32 %6 to i64
  %arrayidx = getelementptr inbounds float, ptr %call17, i64 %idxprom
  %7 = load float, ptr %arrayidx, align 4
  %call18 = call noundef ptr @_ZN9btVector3cvPfEv(ptr noundef nonnull align 4 dereferenceable(16) %localAabbMin)
  %8 = load i32, ptr %i, align 4
  %idxprom19 = sext i32 %8 to i64
  %arrayidx20 = getelementptr inbounds float, ptr %call18, i64 %idxprom19
  %9 = load float, ptr %arrayidx20, align 4
  %cmp21 = fcmp ogt float %7, %9
  br i1 %cmp21, label %if.then, label %if.end

if.then:                                          ; preds = %for.body15
  %call22 = call noundef ptr @_ZN9btVector3cvPfEv(ptr noundef nonnull align 4 dereferenceable(16) %localAabbMin)
  %10 = load i32, ptr %i, align 4
  %idxprom23 = sext i32 %10 to i64
  %arrayidx24 = getelementptr inbounds float, ptr %call22, i64 %idxprom23
  %11 = load float, ptr %arrayidx24, align 4
  %m_localAabbMin25 = getelementptr inbounds %class.btCompoundShape, ptr %this1, i32 0, i32 2
  %call26 = call noundef ptr @_ZN9btVector3cvPfEv(ptr noundef nonnull align 4 dereferenceable(16) %m_localAabbMin25)
  %12 = load i32, ptr %i, align 4
  %idxprom27 = sext i32 %12 to i64
  %arrayidx28 = getelementptr inbounds float, ptr %call26, i64 %idxprom27
  store float %11, ptr %arrayidx28, align 4
  br label %if.end

if.end:                                           ; preds = %if.then, %for.body15
  %m_localAabbMax29 = getelementptr inbounds %class.btCompoundShape, ptr %this1, i32 0, i32 3
  %call30 = call noundef ptr @_ZN9btVector3cvPfEv(ptr noundef nonnull align 4 dereferenceable(16) %m_localAabbMax29)
  %13 = load i32, ptr %i, align 4
  %idxprom31 = sext i32 %13 to i64
  %arrayidx32 = getelementptr inbounds float, ptr %call30, i64 %idxprom31
  %14 = load float, ptr %arrayidx32, align 4
  %call33 = call noundef ptr @_ZN9btVector3cvPfEv(ptr noundef nonnull align 4 dereferenceable(16) %localAabbMax)
  %15 = load i32, ptr %i, align 4
  %idxprom34 = sext i32 %15 to i64
  %arrayidx35 = getelementptr inbounds float, ptr %call33, i64 %idxprom34
  %16 = load float, ptr %arrayidx35, align 4
  %cmp36 = fcmp olt float %14, %16
  br i1 %cmp36, label %if.then37, label %if.end45

if.then37:                                        ; preds = %if.end
  %call38 = call noundef ptr @_ZN9btVector3cvPfEv(ptr noundef nonnull align 4 dereferenceable(16) %localAabbMax)
  %17 = load i32, ptr %i, align 4
  %idxprom39 = sext i32 %17 to i64
  %arrayidx40 = getelementptr inbounds float, ptr %call38, i64 %idxprom39
  %18 = load float, ptr %arrayidx40, align 4
  %m_localAabbMax41 = getelementptr inbounds %class.btCompoundShape, ptr %this1, i32 0, i32 3
  %call42 = call noundef ptr @_ZN9btVector3cvPfEv(ptr noundef nonnull align 4 dereferenceable(16) %m_localAabbMax41)
  %19 = load i32, ptr %i, align 4
  %idxprom43 = sext i32 %19 to i64
  %arrayidx44 = getelementptr inbounds float, ptr %call42, i64 %idxprom43
  store float %18, ptr %arrayidx44, align 4
  br label %if.end45

if.end45:                                         ; preds = %if.then37, %if.end
  br label %for.inc

for.inc:                                          ; preds = %if.end45
  %20 = load i32, ptr %i, align 4
  %inc = add nsw i32 %20, 1
  store i32 %inc, ptr %i, align 4
  br label %for.cond13, !llvm.loop !8

for.end:                                          ; preds = %for.cond13
  br label %for.inc46

for.inc46:                                        ; preds = %for.end
  %21 = load i32, ptr %j, align 4
  %inc47 = add nsw i32 %21, 1
  store i32 %inc47, ptr %j, align 4
  br label %for.cond, !llvm.loop !9

for.end48:                                        ; preds = %for.cond
  ret void
}