; Function Attrs: mustprogress uwtable
define dso_local void @_ZN15btCompoundShape20recalculateLocalAabbEv(ptr nocapture noundef nonnull align 8 dereferenceable(128) %this) unnamed_addr #0 align 2 {
entry:
  %localAabbMin = alloca %class.btVector3, align 4
  %localAabbMax = alloca %class.btVector3, align 4
  %m_localAabbMin = getelementptr inbounds i8, ptr %this, i64 64
  store <4 x float> <float 0x43ABC16D60000000, float 0x43ABC16D60000000, float 0x43ABC16D60000000, float 0.000000e+00>, ptr %m_localAabbMin, align 8
  %m_localAabbMax = getelementptr inbounds i8, ptr %this, i64 80
  store <4 x float> <float 0xC3ABC16D60000000, float 0xC3ABC16D60000000, float 0xC3ABC16D60000000, float 0.000000e+00>, ptr %m_localAabbMax, align 8
  %m_size.i = getelementptr inbounds i8, ptr %this, i64 36
  %0 = load i32, ptr %m_size.i, align 4
  %cmp20 = icmp sgt i32 %0, 0
  br i1 %cmp20, label %for.body.lr.ph, label %for.end48

for.body.lr.ph:                                   ; preds = %entry
  %m_data.i = getelementptr inbounds i8, ptr %this, i64 48
  br label %for.body

for.body:                                         ; preds = %for.body.lr.ph, %for.inc46
  %indvars.iv23 = phi i64 [ 0, %for.body.lr.ph ], [ %indvars.iv.next24, %for.inc46 ]
  %1 = load ptr, ptr %m_data.i, align 8
  %arrayidx.i = getelementptr inbounds %struct.btCompoundShapeChild, ptr %1, i64 %indvars.iv23
  %m_childShape = getelementptr inbounds i8, ptr %arrayidx.i, i64 64
  %2 = load ptr, ptr %m_childShape, align 8
  %vtable = load ptr, ptr %2, align 8
  %vfn = getelementptr inbounds i8, ptr %vtable, i64 16
  %3 = load ptr, ptr %vfn, align 8
  call void %3(ptr noundef nonnull align 8 dereferenceable(32) %2, ptr noundef nonnull align 4 dereferenceable(64) %arrayidx.i, ptr noundef nonnull align 4 dereferenceable(16) %localAabbMin, ptr noundef nonnull align 4 dereferenceable(16) %localAabbMax)
  br label %for.body15

for.body15:                                       ; preds = %for.body, %for.inc
  %indvars.iv = phi i64 [ 0, %for.body ], [ %indvars.iv.next, %for.inc ]
  %arrayidx = getelementptr inbounds float, ptr %m_localAabbMin, i64 %indvars.iv
  %4 = load float, ptr %arrayidx, align 4
  %arrayidx20 = getelementptr inbounds float, ptr %localAabbMin, i64 %indvars.iv
  %5 = load float, ptr %arrayidx20, align 4
  %cmp21 = fcmp ogt float %4, %5
  br i1 %cmp21, label %if.then, label %if.end

if.then:                                          ; preds = %for.body15
  store float %5, ptr %arrayidx, align 4
  br label %if.end

if.end:                                           ; preds = %if.then, %for.body15
  %arrayidx32 = getelementptr inbounds float, ptr %m_localAabbMax, i64 %indvars.iv
  %6 = load float, ptr %arrayidx32, align 4
  %arrayidx35 = getelementptr inbounds float, ptr %localAabbMax, i64 %indvars.iv
  %7 = load float, ptr %arrayidx35, align 4
  %cmp36 = fcmp olt float %6, %7
  br i1 %cmp36, label %if.then37, label %for.inc

if.then37:                                        ; preds = %if.end
  store float %7, ptr %arrayidx32, align 4
  br label %for.inc

for.inc:                                          ; preds = %if.end, %if.then37
  %indvars.iv.next = add nuw nsw i64 %indvars.iv, 1
  %exitcond.not = icmp eq i64 %indvars.iv.next, 3
  br i1 %exitcond.not, label %for.inc46, label %for.body15, !llvm.loop !9

for.inc46:                                        ; preds = %for.inc
  %indvars.iv.next24 = add nuw nsw i64 %indvars.iv23, 1
  %8 = load i32, ptr %m_size.i, align 4
  %9 = sext i32 %8 to i64
  %cmp = icmp slt i64 %indvars.iv.next24, %9
  br i1 %cmp, label %for.body, label %for.end48, !llvm.loop !10

for.end48:                                        ; preds = %for.inc46, %entry
  ret void
}